; Function Attrs: cold nounwind optsize uwtable
define internal range(i32 -22, 1) i32 @targa_encode_init(ptr noundef %0) #0 {
  %2 = getelementptr inbounds nuw i8, ptr %0, i64 112
  %3 = load i32, ptr %2, align 8, !tbaa !4
  %4 = icmp sgt i32 %3, 65535
  br i1 %4, label %9, label %5

5:                                                ; preds = %1
  %6 = getelementptr inbounds nuw i8, ptr %0, i64 116
  %7 = load i32, ptr %6, align 4, !tbaa !27
  %8 = icmp sgt i32 %7, 65535
  br i1 %8, label %9, label %10

9:                                                ; preds = %5, %1
  tail call void (ptr, i32, ptr, ...) @av_log(ptr noundef nonnull %0, i32 noundef 16, ptr noundef nonnull @.str.6) #5
  br label %10

10:                                               ; preds = %5, %9
  %.0 = phi i32 [ -22, %9 ], [ 0, %5 ]
  ret i32 %.0
}